; Function Attrs: mustprogress uwtable
define hidden void @_ZN19OpenColorIO_v2_5dev8Platform19OpenInputFileStreamERSt14basic_ifstreamIcSt11char_traitsIcEEPKcSt13_Ios_Openmode(ptr noundef nonnull align 8 dereferenceable(256) %0, ptr noundef %1, i32 noundef %2) local_unnamed_addr #0 {
  %4 = getelementptr inbounds nuw i8, ptr %0, i64 16
  %5 = or i32 %2, 8
  %6 = tail call noundef ptr @_ZNSt13basic_filebufIcSt11char_traitsIcEE4openEPKcSt13_Ios_Openmode(ptr noundef nonnull align 8 dereferenceable(240) %4, ptr noundef %1, i32 noundef %5)
  %.not.i = icmp eq ptr %6, null
  %7 = load ptr, ptr %0, align 8, !tbaa !38
  %8 = getelementptr i8, ptr %7, i64 -24
  %9 = load i64, ptr %8, align 8
  %10 = getelementptr inbounds i8, ptr %0, i64 %9
  br i1 %.not.i, label %11, label %_ZNSt14basic_ifstreamIcSt11char_traitsIcEE4openEPKcSt13_Ios_Openmode.exit

11:                                               ; preds = %3
  %12 = getelementptr inbounds nuw i8, ptr %10, i64 32
  %13 = load i32, ptr %12, align 8, !tbaa !42
  %14 = or i32 %13, 4
  br label %_ZNSt14basic_ifstreamIcSt11char_traitsIcEE4openEPKcSt13_Ios_Openmode.exit

_ZNSt14basic_ifstreamIcSt11char_traitsIcEE4openEPKcSt13_Ios_Openmode.exit: ; preds = %3, %11
  %.sink.i = phi i32 [ %14, %11 ], [ 0, %3 ]
  tail call void @_ZNSt9basic_iosIcSt11char_traitsIcEE5clearESt12_Ios_Iostate(ptr noundef nonnull align 8 dereferenceable(264) %10, i32 noundef %.sink.i)
  ret void
}